; Function Attrs: mustprogress uwtable
define dso_local noundef ptr @_ZN4Luau9TypeArena11addTypePackENS_11TypePackVarE(ptr noundef nonnull align 8 dereferenceable(88) %0, ptr noundef %1) local_unnamed_addr #1 align 2 {
  %3 = getelementptr inbounds nuw i8, ptr %0, i64 72
  %4 = load i64, ptr %3, align 8
  %5 = icmp ugt i64 %4, 371
  br i1 %5, label %6, label %_ZN4Luau14TypedAllocatorINS_11TypePackVarEE8allocateIJS1_EEEPS1_DpOT_.exit

6:                                                ; preds = %2
  %7 = getelementptr inbounds nuw i8, ptr %0, i64 40
  tail call void @_ZN4Luau14TypedAllocatorINS_11TypePackVarEE11appendBlockEv(ptr noundef nonnull align 8 dereferenceable(40) %7)
  %.pre.i = load i64, ptr %3, align 8
  br label %_ZN4Luau14TypedAllocatorINS_11TypePackVarEE8allocateIJS1_EEEPS1_DpOT_.exit

_ZN4Luau14TypedAllocatorINS_11TypePackVarEE8allocateIJS1_EEEPS1_DpOT_.exit: ; preds = %2, %6
  %8 = phi i64 [ %.pre.i, %6 ], [ %4, %2 ]
  %9 = getelementptr inbounds nuw i8, ptr %0, i64 56
  %10 = load ptr, ptr %9, align 8
  %11 = getelementptr inbounds i8, ptr %10, i64 -8
  %12 = load ptr, ptr %11, align 8
  %13 = getelementptr inbounds %"struct.Luau::TypePackVar", ptr %12, i64 %8
  %14 = load i32, ptr %1, align 8
  store i32 %14, ptr %13, align 8
  %15 = sext i32 %14 to i64
  %16 = getelementptr inbounds [8 x ptr], ptr @_ZZN4Luau7VariantIJNS_9Unifiable5BoundIPKNS_11TypePackVarEEENS1_5ErrorENS_12FreeTypePackENS_15GenericTypePackENS_8TypePackENS_16VariadicTypePackENS_15BlockedTypePackENS_26TypeFamilyInstanceTypePackEEEC1ERKSE_E5table, i64 0, i64 %15
  %17 = load ptr, ptr %16, align 8
  %18 = getelementptr inbounds nuw i8, ptr %13, i64 8
  %19 = getelementptr inbounds nuw i8, ptr %1, i64 8
  tail call void %17(ptr noundef nonnull %18, ptr noundef nonnull %19)
  %20 = getelementptr inbounds nuw i8, ptr %13, i64 72
  %21 = getelementptr inbounds nuw i8, ptr %1, i64 72
  tail call void @llvm.memcpy.p0.p0.i64(ptr noundef nonnull align 8 dereferenceable(16) %20, ptr noundef nonnull align 8 dereferenceable(16) %21, i64 16, i1 false)
  %22 = load i64, ptr %3, align 8
  %23 = add i64 %22, 1
  store i64 %23, ptr %3, align 8
  %24 = tail call noundef ptr @_ZN4Luau9asMutableEPKNS_11TypePackVarE(ptr noundef nonnull %13)
  %25 = getelementptr inbounds nuw i8, ptr %24, i64 80
  store ptr %0, ptr %25, align 8
  ret ptr %13
}